target datalayout = "e-m:e-p270:32:32-p271:32:32-p272:64:64-i64:64-i128:128-f80:128-n8:16:32:64-S128"
target triple = "x86_64-pc-linux-gnu"

%struct.ForEachState = type { ptr, i32 }
%union.ListCell = type { ptr }
%struct.List = type { i32, i32, i32, ptr, [0 x %union.ListCell] }
%struct.RangeTblRef = type { i32, i32 }
%struct.FromExpr = type { i32, ptr, ptr }
%struct.Node = type { i32 }
%struct.JoinExpr = type { i32, i32, i8, ptr, ptr, ptr, ptr, ptr, ptr, i32 }

@.str.2 = private unnamed_addr constant [15 x i8] c"prepjointree.c\00", align 1
@.str.5 = private unnamed_addr constant [27 x i8] c"unrecognized node type: %d\00", align 1
@__func__.get_relids_in_jointree = private unnamed_addr constant [23 x i8] c"get_relids_in_jointree\00", align 1

; Function Attrs: nounwind uwtable
define dso_local ptr @get_relids_in_jointree(ptr noundef %0, i1 noundef zeroext %1, i1 noundef zeroext %2) #0 {
  %4 = alloca ptr, align 8
  %5 = alloca ptr, align 8
  %6 = alloca i8, align 1
  %7 = alloca i8, align 1
  %8 = alloca ptr, align 8
  %9 = alloca i32, align 4
  %10 = alloca i32, align 4
  %11 = alloca ptr, align 8
  %12 = alloca ptr, align 8
  %13 = alloca %struct.ForEachState, align 8
  %14 = alloca ptr, align 8
  store ptr %0, ptr %5, align 8
  %15 = zext i1 %1 to i8
  store i8 %15, ptr %6, align 1
  %16 = zext i1 %2 to i8
  store i8 %16, ptr %7, align 1
  call void @llvm.lifetime.start.p0(i64 8, ptr %8) #8
  store ptr null, ptr %8, align 8
  %17 = load ptr, ptr %5, align 8
  %18 = icmp eq ptr %17, null
  br i1 %18, label %19, label %21

19:                                               ; preds = %3
  %20 = load ptr, ptr %8, align 8
  store ptr %20, ptr %4, align 8
  store i32 1, ptr %9, align 4
  br label %160

21:                                               ; preds = %3
  %22 = load ptr, ptr %5, align 8
  %23 = getelementptr inbounds nuw %struct.Node, ptr %22, i32 0, i32 0
  %24 = load i32, ptr %23, align 4
  %25 = icmp eq i32 %24, 63
  br i1 %25, label %26, label %32

26:                                               ; preds = %21
  call void @llvm.lifetime.start.p0(i64 4, ptr %10) #8
  %27 = load ptr, ptr %5, align 8
  %28 = getelementptr inbounds nuw %struct.RangeTblRef, ptr %27, i32 0, i32 1
  %29 = load i32, ptr %28, align 4
  store i32 %29, ptr %10, align 4
  %30 = load i32, ptr %10, align 4
  %31 = call ptr @bms_make_singleton(i32 noundef %30)
  store ptr %31, ptr %8, align 8
  call void @llvm.lifetime.end.p0(i64 4, ptr %10) #8
  br label %158

32:                                               ; preds = %21
  %33 = load ptr, ptr %5, align 8
  %34 = getelementptr inbounds nuw %struct.Node, ptr %33, i32 0, i32 0
  %35 = load i32, ptr %34, align 4
  %36 = icmp eq i32 %35, 65
  br i1 %36, label %37, label %86

37:                                               ; preds = %32
  call void @llvm.lifetime.start.p0(i64 8, ptr %11) #8
  %38 = load ptr, ptr %5, align 8
  store ptr %38, ptr %11, align 8
  call void @llvm.lifetime.start.p0(i64 8, ptr %12) #8
  call void @llvm.lifetime.start.p0(i64 16, ptr %13) #8
  %39 = getelementptr inbounds nuw %struct.ForEachState, ptr %13, i32 0, i32 0
  %40 = load ptr, ptr %11, align 8
  %41 = getelementptr inbounds nuw %struct.FromExpr, ptr %40, i32 0, i32 1
  %42 = load ptr, ptr %41, align 8
  store ptr %42, ptr %39, align 8
  %43 = getelementptr inbounds nuw %struct.ForEachState, ptr %13, i32 0, i32 1
  store i32 0, ptr %43, align 8
  %44 = getelementptr i8, ptr %13, i64 12
  call void @llvm.memset.p0.i64(ptr align 4 %44, i8 0, i64 4, i1 false)
  br label %45

45:                                               ; preds = %81, %37
  %46 = getelementptr inbounds nuw %struct.ForEachState, ptr %13, i32 0, i32 0
  %47 = load ptr, ptr %46, align 8
  %48 = icmp ne ptr %47, null
  br i1 %48, label %49, label %66

49:                                               ; preds = %45
  %50 = getelementptr inbounds nuw %struct.ForEachState, ptr %13, i32 0, i32 1
  %51 = load i32, ptr %50, align 8
  %52 = getelementptr inbounds nuw %struct.ForEachState, ptr %13, i32 0, i32 0
  %53 = load ptr, ptr %52, align 8
  %54 = getelementptr inbounds nuw %struct.List, ptr %53, i32 0, i32 1
  %55 = load i32, ptr %54, align 4
  %56 = icmp slt i32 %51, %55
  br i1 %56, label %57, label %66

57:                                               ; preds = %49
  %58 = getelementptr inbounds nuw %struct.ForEachState, ptr %13, i32 0, i32 0
  %59 = load ptr, ptr %58, align 8
  %60 = getelementptr inbounds nuw %struct.List, ptr %59, i32 0, i32 3
  %61 = load ptr, ptr %60, align 8
  %62 = getelementptr inbounds nuw %struct.ForEachState, ptr %13, i32 0, i32 1
  %63 = load i32, ptr %62, align 8
  %64 = sext i32 %63 to i64
  %65 = getelementptr inbounds %union.ListCell, ptr %61, i64 %64
  store ptr %65, ptr %12, align 8
  br label %67

66:                                               ; preds = %49, %45
  store ptr null, ptr %12, align 8
  br label %67

67:                                               ; preds = %66, %57
  %68 = phi i32 [ 1, %57 ], [ 0, %66 ]
  %69 = icmp ne i32 %68, 0
  br i1 %69, label %71, label %70

70:                                               ; preds = %67
  store i32 2, ptr %9, align 4
  call void @llvm.lifetime.end.p0(i64 16, ptr %13) #8
  br label %85

71:                                               ; preds = %67
  %72 = load ptr, ptr %8, align 8
  %73 = load ptr, ptr %12, align 8
  %74 = load ptr, ptr %73, align 8
  %75 = load i8, ptr %6, align 1, !range !7, !noundef !8
  %76 = trunc i8 %75 to i1
  %77 = load i8, ptr %7, align 1, !range !7, !noundef !8
  %78 = trunc i8 %77 to i1
  %79 = call ptr @get_relids_in_jointree(ptr noundef %74, i1 noundef zeroext %76, i1 noundef zeroext %78)
  %80 = call ptr @bms_join(ptr noundef %72, ptr noundef %79)
  store ptr %80, ptr %8, align 8
  br label %81

81:                                               ; preds = %71
  %82 = getelementptr inbounds nuw %struct.ForEachState, ptr %13, i32 0, i32 1
  %83 = load i32, ptr %82, align 8
  %84 = add i32 %83, 1
  store i32 %84, ptr %82, align 8
  br label %45, !llvm.loop !21

85:                                               ; preds = %70
  call void @llvm.lifetime.end.p0(i64 8, ptr %12) #8
  call void @llvm.lifetime.end.p0(i64 8, ptr %11) #8
  br label %157

86:                                               ; preds = %32
  %87 = load ptr, ptr %5, align 8
  %88 = getelementptr inbounds nuw %struct.Node, ptr %87, i32 0, i32 0
  %89 = load i32, ptr %88, align 4
  %90 = icmp eq i32 %89, 64
  br i1 %90, label %91, label %142

91:                                               ; preds = %86
  call void @llvm.lifetime.start.p0(i64 8, ptr %14) #8
  %92 = load ptr, ptr %5, align 8
  store ptr %92, ptr %14, align 8
  %93 = load ptr, ptr %14, align 8
  %94 = getelementptr inbounds nuw %struct.JoinExpr, ptr %93, i32 0, i32 3
  %95 = load ptr, ptr %94, align 8
  %96 = load i8, ptr %6, align 1, !range !7, !noundef !8
  %97 = trunc i8 %96 to i1
  %98 = load i8, ptr %7, align 1, !range !7, !noundef !8
  %99 = trunc i8 %98 to i1
  %100 = call ptr @get_relids_in_jointree(ptr noundef %95, i1 noundef zeroext %97, i1 noundef zeroext %99)
  store ptr %100, ptr %8, align 8
  %101 = load ptr, ptr %8, align 8
  %102 = load ptr, ptr %14, align 8
  %103 = getelementptr inbounds nuw %struct.JoinExpr, ptr %102, i32 0, i32 4
  %104 = load ptr, ptr %103, align 8
  %105 = load i8, ptr %6, align 1, !range !7, !noundef !8
  %106 = trunc i8 %105 to i1
  %107 = load i8, ptr %7, align 1, !range !7, !noundef !8
  %108 = trunc i8 %107 to i1
  %109 = call ptr @get_relids_in_jointree(ptr noundef %104, i1 noundef zeroext %106, i1 noundef zeroext %108)
  %110 = call ptr @bms_join(ptr noundef %101, ptr noundef %109)
  store ptr %110, ptr %8, align 8
  %111 = load ptr, ptr %14, align 8
  %112 = getelementptr inbounds nuw %struct.JoinExpr, ptr %111, i32 0, i32 9
  %113 = load i32, ptr %112, align 8
  %114 = icmp ne i32 %113, 0
  br i1 %114, label %115, label %141

115:                                              ; preds = %91
  %116 = load ptr, ptr %14, align 8
  %117 = getelementptr inbounds nuw %struct.JoinExpr, ptr %116, i32 0, i32 1
  %118 = load i32, ptr %117, align 4
  %119 = icmp eq i32 %118, 0
  br i1 %119, label %120, label %130

120:                                              ; preds = %115
  %121 = load i8, ptr %7, align 1, !range !7, !noundef !8
  %122 = trunc i8 %121 to i1
  br i1 %122, label %123, label %129

123:                                              ; preds = %120
  %124 = load ptr, ptr %8, align 8
  %125 = load ptr, ptr %14, align 8
  %126 = getelementptr inbounds nuw %struct.JoinExpr, ptr %125, i32 0, i32 9
  %127 = load i32, ptr %126, align 8
  %128 = call ptr @bms_add_member(ptr noundef %124, i32 noundef %127)
  store ptr %128, ptr %8, align 8
  br label %129

129:                                              ; preds = %123, %120
  br label %140

130:                                              ; preds = %115
  %131 = load i8, ptr %6, align 1, !range !7, !noundef !8
  %132 = trunc i8 %131 to i1
  br i1 %132, label %133, label %139

133:                                              ; preds = %130
  %134 = load ptr, ptr %8, align 8
  %135 = load ptr, ptr %14, align 8
  %136 = getelementptr inbounds nuw %struct.JoinExpr, ptr %135, i32 0, i32 9
  %137 = load i32, ptr %136, align 8
  %138 = call ptr @bms_add_member(ptr noundef %134, i32 noundef %137)
  store ptr %138, ptr %8, align 8
  br label %139

139:                                              ; preds = %133, %130
  br label %140

140:                                              ; preds = %139, %129
  br label %141

141:                                              ; preds = %140, %91
  call void @llvm.lifetime.end.p0(i64 8, ptr %14) #8
  br label %156

142:                                              ; preds = %86
  br label %143

143:                                              ; preds = %142
  br i1 true, label %144, label %146

144:                                              ; preds = %143
  %145 = call zeroext i1 @errstart_cold(i32 noundef 21, ptr noundef null) #9
  br i1 %145, label %148, label %153

146:                                              ; preds = %143
  %147 = call zeroext i1 @errstart(i32 noundef 21, ptr noundef null)
  br i1 %147, label %148, label %153

148:                                              ; preds = %146, %144
  %149 = load ptr, ptr %5, align 8
  %150 = getelementptr inbounds nuw %struct.Node, ptr %149, i32 0, i32 0
  %151 = load i32, ptr %150, align 4
  %152 = call i32 (ptr, ...) @errmsg_internal(ptr noundef @.str.5, i32 noundef %151)
  call void @errfinish(ptr noundef @.str.2, i32 noundef 4182, ptr noundef @__func__.get_relids_in_jointree)
  br label %153

153:                                              ; preds = %148, %146, %144
  unreachable

154:                                              ; No predecessors!
  br label %155

155:                                              ; preds = %154
  br label %156

156:                                              ; preds = %155, %141
  br label %157

157:                                              ; preds = %156, %85
  br label %158

158:                                              ; preds = %157, %26
  %159 = load ptr, ptr %8, align 8
  store ptr %159, ptr %4, align 8
  store i32 1, ptr %9, align 4
  br label %160

160:                                              ; preds = %158, %19
  call void @llvm.lifetime.end.p0(i64 8, ptr %8) #8
  %161 = load ptr, ptr %4, align 8
  ret ptr %161
}