; Function Attrs: nounwind uwtable
define dso_local ptr @get_relids_in_jointree(ptr noundef readonly captures(address_is_null) %0, i1 noundef zeroext %1, i1 noundef zeroext %2) local_unnamed_addr #0 {
  %4 = icmp eq ptr %0, null
  br i1 %4, label %.thread, label %5

5:                                                ; preds = %3
  %6 = load i32, ptr %0, align 4
  switch i32 %6, label %46 [
    i32 63, label %7
    i32 65, label %11
    i32 64, label %26
  ]

7:                                                ; preds = %5
  %8 = getelementptr inbounds nuw i8, ptr %0, i64 4
  %9 = load i32, ptr %8, align 4
  %10 = tail call ptr @bms_make_singleton(i32 noundef %9) #7
  br label %.thread

11:                                               ; preds = %5
  %12 = getelementptr inbounds nuw i8, ptr %0, i64 8
  %13 = load ptr, ptr %12, align 8
  %14 = getelementptr inbounds nuw i8, ptr %13, i64 4
  %.not41 = icmp eq ptr %13, null
  br i1 %.not41, label %.thread, label %.lr.ph

.lr.ph:                                           ; preds = %11
  %15 = getelementptr inbounds nuw i8, ptr %13, i64 16
  %16 = load i32, ptr %14, align 4
  %17 = icmp sgt i32 %16, 0
  br i1 %17, label %.lr.ph52, label %.thread

.lr.ph52:                                         ; preds = %.lr.ph, %.lr.ph52
  %indvars.iv = phi i64 [ %indvars.iv.next, %.lr.ph52 ], [ 0, %.lr.ph ]
  %.14650 = phi ptr [ %22, %.lr.ph52 ], [ null, %.lr.ph ]
  %18 = load ptr, ptr %15, align 8
  %19 = getelementptr inbounds nuw %union.ListCell, ptr %18, i64 %indvars.iv
  %20 = load ptr, ptr %19, align 8
  %21 = tail call ptr @get_relids_in_jointree(ptr noundef %20, i1 noundef zeroext %1, i1 noundef zeroext %2)
  %22 = tail call ptr @bms_join(ptr noundef %.14650, ptr noundef %21) #7
  %indvars.iv.next = add nuw nsw i64 %indvars.iv, 1
  %23 = load i32, ptr %14, align 4
  %24 = sext i32 %23 to i64
  %25 = icmp slt i64 %indvars.iv.next, %24
  br i1 %25, label %.lr.ph52, label %.thread

26:                                               ; preds = %5
  %27 = getelementptr inbounds nuw i8, ptr %0, i64 16
  %28 = load ptr, ptr %27, align 8
  %29 = tail call ptr @get_relids_in_jointree(ptr noundef %28, i1 noundef zeroext %1, i1 noundef zeroext %2)
  %30 = getelementptr inbounds nuw i8, ptr %0, i64 24
  %31 = load ptr, ptr %30, align 8
  %32 = tail call ptr @get_relids_in_jointree(ptr noundef %31, i1 noundef zeroext %1, i1 noundef zeroext %2)
  %33 = tail call ptr @bms_join(ptr noundef %29, ptr noundef %32) #7
  %34 = getelementptr inbounds nuw i8, ptr %0, i64 64
  %35 = load i32, ptr %34, align 8
  %.not = icmp eq i32 %35, 0
  br i1 %.not, label %.thread, label %36

36:                                               ; preds = %26
  %37 = getelementptr inbounds nuw i8, ptr %0, i64 4
  %38 = load i32, ptr %37, align 4
  %39 = icmp eq i32 %38, 0
  br i1 %39, label %40, label %43

40:                                               ; preds = %36
  br i1 %2, label %41, label %.thread

41:                                               ; preds = %40
  %42 = tail call ptr @bms_add_member(ptr noundef %33, i32 noundef %35) #7
  br label %.thread

43:                                               ; preds = %36
  br i1 %1, label %44, label %.thread

44:                                               ; preds = %43
  %45 = tail call ptr @bms_add_member(ptr noundef %33, i32 noundef %35) #7
  br label %.thread

46:                                               ; preds = %5
  %47 = tail call zeroext i1 @errstart_cold(i32 noundef 21, ptr noundef null) #8
  tail call void @llvm.assume(i1 %47)
  %48 = load i32, ptr %0, align 4
  %49 = tail call i32 (ptr, ...) @errmsg_internal(ptr noundef nonnull @.str.5, i32 noundef %48) #7
  tail call void @errfinish(ptr noundef nonnull @.str.2, i32 noundef 4182, ptr noundef nonnull @__func__.get_relids_in_jointree) #7
  unreachable

.thread:                                          ; preds = %.lr.ph52, %11, %.lr.ph, %7, %41, %40, %44, %43, %26, %3
  %.0 = phi ptr [ null, %3 ], [ %10, %7 ], [ %42, %41 ], [ %33, %40 ], [ %45, %44 ], [ %33, %43 ], [ %33, %26 ], [ null, %11 ], [ null, %.lr.ph ], [ %22, %.lr.ph52 ]
  ret ptr %.0
}